target datalayout = "e-m:e-p270:32:32-p271:32:32-p272:64:64-i64:64-i128:128-f80:128-n8:16:32:64-S128"
target triple = "x86_64-pc-linux-gnu"

%struct.nstime_t = type { i64, i32 }
%struct._packet_info = type { ptr, ptr, i32, i32, %struct.nstime_t, %struct.nstime_t, %struct.nstime_t, i8, ptr, ptr, ptr, ptr, %struct._address, %struct._address, %struct._address, %struct._address, %struct._address, %struct._address, i32, ptr, i8, [3 x i8], %struct.anon, i32, i32, i32, i32, ptr, i8, ptr, ptr, i16, i16, i32, i32, i16, i32, i32, ptr, ptr, ptr, i8, i8, i16, i16, i16, i32, i16, i16, ptr, ptr, ptr, ptr, ptr, i32, i32 }
%struct._address = type { i32, i32, ptr, ptr }
%struct.anon = type { i8, [3 x i8] }
%struct._frame_data = type <{ i32, i32, i32, i32, i32, [4 x i8], i64, ptr, ptr, ptr, i8, i16, [5 x i8], %struct.nstime_t, %struct.nstime_t, i32, i32 }>
%struct.ue_parameters_t = type { i8, i8, i8, i8, %struct.drx_state_t }
%struct.drx_state_t = type { %struct.drx_config_t, %struct.drx_running_state_t, %struct.drx_running_state_t }
%struct.drx_config_t = type { i8, i32, i32, i32, i32, i32, i32, i32, i8, i32, i32 }
%struct.drx_running_state_t = type { i8, i8, %struct.nstime_t, i64, i16, i16, i64, i64, [8 x i64], [8 x i64], i64 }

@global_mac_lte_show_drx = internal global i8 0, align 1
@mac_lte_ue_parameters = internal global ptr null, align 8

; Function Attrs: null_pointer_is_valid sspstrong uwtable
define hidden void @set_mac_lte_drx_config_release(i16 noundef zeroext %0, ptr noundef %1) #0 {
  %3 = alloca i16, align 2
  %4 = alloca ptr, align 8
  %5 = alloca ptr, align 8
  store i16 %0, ptr %3, align 2
  store ptr %1, ptr %4, align 8
  %6 = load i8, ptr @global_mac_lte_show_drx, align 1, !range !9, !noundef !10
  %7 = trunc i8 %6 to i1
  br i1 %7, label %8, label %31

8:                                                ; preds = %2
  %9 = load ptr, ptr %4, align 8
  %10 = getelementptr inbounds nuw %struct._packet_info, ptr %9, i32 0, i32 8
  %11 = load ptr, ptr %10, align 8
  %12 = getelementptr inbounds nuw %struct._frame_data, ptr %11, i32 0, i32 11
  %13 = load i16, ptr %12, align 1
  %14 = lshr i16 %13, 3
  %15 = and i16 %14, 1
  %16 = zext i16 %15 to i32
  %17 = icmp ne i32 %16, 0
  br i1 %17, label %31, label %18

18:                                               ; preds = %8
  call void @llvm.lifetime.start.p0(i64 8, ptr %5) #16
  %19 = load ptr, ptr @mac_lte_ue_parameters, align 8
  %20 = load i16, ptr %3, align 2
  %21 = zext i16 %20 to i32
  %22 = zext i32 %21 to i64
  %23 = inttoptr i64 %22 to ptr
  %24 = call ptr @g_hash_table_lookup(ptr noundef %19, ptr noundef %23)
  store ptr %24, ptr %5, align 8
  %25 = load ptr, ptr %5, align 8
  %26 = icmp ne ptr %25, null
  br i1 %26, label %27, label %30

27:                                               ; preds = %18
  %28 = load ptr, ptr %5, align 8
  %29 = getelementptr inbounds nuw %struct.ue_parameters_t, ptr %28, i32 0, i32 3
  store i8 0, ptr %29, align 1
  br label %30

30:                                               ; preds = %27, %18
  call void @llvm.lifetime.end.p0(i64 8, ptr %5) #16
  br label %31

31:                                               ; preds = %30, %8, %2
  ret void
}