; Function Attrs: null_pointer_is_valid sspstrong uwtable
define hidden void @set_mac_lte_drx_config_release(i16 noundef zeroext %0, ptr noundef readonly captures(none) %1) local_unnamed_addr #0 {
  %3 = load i8, ptr @global_mac_lte_show_drx, align 1, !range !9, !noundef !10
  %4 = trunc nuw i8 %3 to i1
  br i1 %4, label %5, label %18

5:                                                ; preds = %2
  %6 = getelementptr inbounds nuw i8, ptr %1, i64 80
  %7 = load ptr, ptr %6, align 8
  %8 = getelementptr inbounds nuw i8, ptr %7, i64 57
  %9 = load i16, ptr %8, align 1
  %10 = and i16 %9, 8
  %.not = icmp eq i16 %10, 0
  br i1 %.not, label %11, label %18

11:                                               ; preds = %5
  %12 = load ptr, ptr @mac_lte_ue_parameters, align 8
  %13 = zext i16 %0 to i64
  %14 = inttoptr i64 %13 to ptr
  %15 = tail call ptr @g_hash_table_lookup(ptr noundef %12, ptr noundef %14)
  %.not3 = icmp eq ptr %15, null
  br i1 %.not3, label %18, label %16

16:                                               ; preds = %11
  %17 = getelementptr inbounds nuw i8, ptr %15, i64 3
  store i8 0, ptr %17, align 1
  br label %18

18:                                               ; preds = %11, %16, %5, %2
  ret void
}